Certificate:
    Data:
        Version: 3 (0x2)
        Serial Number:
            75:17:5a:83:58:63:5d:d4:3b:da:f8:a1:d1:9c:3f:29
        Signature Algorithm: sha256WithRSAEncryption
        Issuer: CN=test1
        Validity
            Not Before: Apr 13 08:27:07 2023 GMT
            Not After : Jul 16 08:27:07 2025 GMT
        Subject: CN=ChangeMe
        Subject Public Key Info:
            Public Key Algorithm: rsaEncryption
                RSA Public-Key: (2048 bit)
                Modulus:
                    00:c8:9e:3e:d6:ed:26:5f:54:ec:2a:ff:49:ad:b4:
                    0e:d2:5f:70:c7:88:f2:66:b8:22:af:64:70:8e:50:
                    52:08:81:a0:39:29:4e:2e:6d:20:4f:71:c8:78:43:
                    d7:4c:39:31:47:a2:24:61:3c:24:6a:e7:9f:76:e9:
                    79:fb:7c:f3:8e:d4:3c:1c:0c:db:2c:01:f5:43:88:
                    a4:90:8c:e7:e8:5e:ad:a4:a8:f8:a6:a3:67:8c:df:
                    5e:5e:c3:0c:59:9e:54:ba:3a:a7:6a:cd:a2:8f:fd:
                    b3:92:9a:6f:e7:87:10:0c:14:48:b0:4a:6c:f1:65:
                    69:cc:16:f1:e6:52:aa:35:0d:c4:07:f6:b3:e6:73:
                    39:60:f2:b5:50:39:63:7f:01:44:73:b9:08:7f:73:
                    f2:7c:8b:1e:25:e4:40:e2:9d:0d:7b:1e:67:df:e3:
                    ff:2c:e3:3b:ce:71:11:a3:62:0b:28:df:c0:52:dd:
                    84:33:1b:e7:35:4b:33:0c:96:e9:71:63:20:25:8c:
                    2a:fc:a9:ec:ab:9f:08:b7:a2:30:9a:05:bc:96:98:
                    62:9e:1a:3e:e5:54:64:00:02:d9:9d:da:1a:5f:90:
                    ef:ff:66:e1:e7:5f:f9:cb:5f:c2:d0:db:16:0e:0d:
                    79:c9:f5:42:79:a9:dd:ca:a7:30:83:06:28:5c:e7:
                    e4:51
                Exponent: 65537 (0x10001)
        X509v3 extensions:
            X509v3 Basic Constraints: 
                CA:FALSE
            X509v3 Subject Key Identifier: 
                B6:2B:6D:A8:7C:49:A9:94:70:17:68:91:05:94:CF:34:EE:BC:66:29
            X509v3 Authority Key Identifier: 
                keyid:A0:C8:11:31:86:0E:86:A0:00:5D:FD:40:2E:7C:F0:6B:C9:1A:7D:AD
                DirName:/CN=test1
                serial:6B:77:07:DC:0E:A5:B6:01:E0:64:59:2F:86:41:D9:A6:52:B6:DA:8F

            X509v3 Extended Key Usage: 
                TLS Web Client Authentication
            X509v3 Key Usage: 
                Digital Signature
    Signature Algorithm: sha256WithRSAEncryption
         3f:71:03:7f:91:9b:a3:ff:45:92:0c:3d:53:45:e5:0f:49:d0:
         12:d3:94:37:6f:c6:e3:79:cc:e0:03:fb:06:bb:aa:6a:50:4c:
         d6:e1:97:bf:66:3f:62:6b:1c:a5:c4:01:c5:49:98:09:bd:24:
         74:2b:85:36:05:ae:29:3e:36:ad:ed:5c:4d:1d:43:6d:06:b4:
         82:c4:dc:b9:58:c0:ed:c3:3a:ac:a5:70:c3:6f:ba:3c:8f:52:
         7e:1d:14:1a:ac:69:17:d7:fe:78:47:a7:d6:cc:b7:11:ec:8c:
         35:28:53:8e:e4:4d:e8:63:6f:4f:6c:e0:d3:48:1b:15:a1:c0:
         20:8f:1e:a2:cf:3a:40:47:c9:a9:b8:2a:1d:23:94:bc:a8:d1:
         f9:32:f6:9b:89:59:46:48:da:9c:9c:db:ba:a2:ee:ec:2f:4b:
         8c:6f:00:b5:43:6d:b4:99:ea:f9:c3:ca:67:48:4c:ce:86:99:
         b5:30:4d:d4:5e:d6:c8:42:1d:b8:58:b8:07:0d:76:13:31:50:
         f6:16:36:e3:5a:93:3d:2c:46:5e:8e:64:f9:a6:bc:6d:18:e5:
         6f:ef:ea:6e:fc:23:10:2e:26:1a:e8:b8:5b:ca:de:b9:9c:8b:
         0c:6f:e4:73:e9:8b:2f:65:be:36:29:1f:7d:15:13:09:90:30:
         bc:57:c8:a9
-----BEGIN CERTIFICATE-----
MIIDSjCCAjKgAwIBAgIQdRdag1hjXdQ72vih0Zw/KTANBgkqhkiG9w0BAQsFADAQ
MQ4wDAYDVQQDDAV0ZXN0MTAeFw0yMzA0MTMwODI3MDdaFw0yNTA3MTYwODI3MDda
MBMxETAPBgNVBAMMCENoYW5nZU1lMIIBIjANBgkqhkiG9w0BAQEFAAOCAQ8AMIIB
CgKCAQEAyJ4+1u0mX1TsKv9JrbQO0l9wx4jyZrgir2RwjlBSCIGgOSlOLm0gT3HI
eEPXTDkxR6IkYTwkauefdul5+3zzjtQ8HAzbLAH1Q4ikkIzn6F6tpKj4pqNnjN9e
XsMMWZ5Uujqnas2ij/2zkppv54cQDBRIsEps8WVpzBbx5lKqNQ3EB/az5nM5YPK1
UDljfwFEc7kIf3PyfIseJeRA4p0Nex5n3+P/LOM7znERo2ILKN/AUt2EMxvnNUsz
DJbpcWMgJYwq/Knsq58It6IwmgW8lphinho+5VRkAALZndoaX5Dv/2bh51/5y1/C
0NsWDg15yfVCeandyqcwgwYoXOfkUQIDAQABo4GcMIGZMAkGA1UdEwQCMAAwHQYD
VR0OBBYEFLYrbah8SamUcBdokQWUzzTuvGYpMEsGA1UdIwREMEKAFKDIETGGDoag
AF39QC588GvJGn2toRSkEjAQMQ4wDAYDVQQDDAV0ZXN0MYIUa3cH3A6ltgHgZFkv
hkHZplK22o8wEwYDVR0lBAwwCgYIKwYBBQUHAwIwCwYDVR0PBAQDAgeAMA0GCSqG
SIb3DQEBCwUAA4IBAQA/cQN/kZuj/0WSDD1TReUPSdAS05Q3b8bjeczgA/sGu6pq
UEzW4Ze/Zj9iaxylxAHFSZgJvSR0K4U2Ba4pPjat7VxNHUNtBrSCxNy5WMDtwzqs
pXDDb7o8j1J+HRQarGkX1/54R6fWzLcR7Iw1KFOO5E3oY29PbODTSBsVocAgjx6i
zzpAR8mpuCodI5S8qNH5MvabiVlGSNqcnNu6ou7sL0uMbwC1Q220mer5w8pnSEzO
hpm1ME3UXtbIQh24WLgHDXYTMVD2FjbjWpM9LEZejmT5prxtGOVv7+pu/CMQLiYa
6Lhbyt65nIsMb+Rz6YsvZb42KR99FRMJkDC8V8ip
-----END CERTIFICATE-----
